; Function Attrs: nounwind uwtable
define internal i32 @rsa_decrypt_wrap(ptr noundef readonly captures(none) %0, ptr noundef %1, i64 noundef %2, ptr noundef %3, ptr noundef %4, i64 noundef %5, ptr noundef %6, ptr noundef %7) #0 {
  %9 = getelementptr inbounds nuw i8, ptr %0, i64 8
  %10 = load ptr, ptr %9, align 8, !tbaa !3
  %11 = tail call i64 @mbedtls_rsa_get_len(ptr noundef %10) #10
  %.not = icmp eq i64 %2, %11
  br i1 %.not, label %12, label %14

12:                                               ; preds = %8
  %13 = tail call i32 @mbedtls_rsa_pkcs1_decrypt(ptr noundef %10, ptr noundef %6, ptr noundef %7, ptr noundef %4, ptr noundef %1, ptr noundef %3, i64 noundef %5) #10
  br label %14

14:                                               ; preds = %8, %12
  %.0 = phi i32 [ %13, %12 ], [ -16512, %8 ]
  ret i32 %.0
}